target datalayout = "e-m:e-p270:32:32-p271:32:32-p272:64:64-i64:64-i128:128-f80:128-n8:16:32:64-S128"
target triple = "x86_64-pc-linux-gnu"

%struct.RString = type { %struct.RBasic, i64, %union.anon }
%struct.RBasic = type { i64, i64 }
%union.anon = type { %struct.anon }
%struct.anon = type { ptr, %union.anon.0 }
%union.anon.0 = type { i64 }
%struct.anon.1 = type { [1 x i8] }

@abbr_months = internal constant [12 x [4 x i8]] [[4 x i8] c"jan\00", [4 x i8] c"feb\00", [4 x i8] c"mar\00", [4 x i8] c"apr\00", [4 x i8] c"may\00", [4 x i8] c"jun\00", [4 x i8] c"jul\00", [4 x i8] c"aug\00", [4 x i8] c"sep\00", [4 x i8] c"oct\00", [4 x i8] c"nov\00", [4 x i8] c"dec\00"], align 16

; Function Attrs: inlinehint nounwind sspstrong willreturn memory(read) uwtable
define internal i64 @RB_FL_TEST_RAW(i64 noundef %0, i64 noundef %1) #2 {
  %3 = alloca i64, align 8
  %4 = alloca i64, align 8
  store i64 %0, ptr %3, align 8, !tbaa !6
  store i64 %1, ptr %4, align 8, !tbaa !6
  %5 = load i64, ptr %3, align 8, !tbaa !6
  %6 = inttoptr i64 %5 to ptr
  %7 = getelementptr inbounds nuw %struct.RBasic, ptr %6, i32 0, i32 0
  %8 = load i64, ptr %7, align 8, !tbaa !38
  %9 = load i64, ptr %4, align 8, !tbaa !6
  %10 = and i64 %8, %9
  ret i64 %10
}

; Function Attrs: inlinehint nounwind sspstrong willreturn memory(read) uwtable
define internal i64 @RSTRING_LEN(i64 noundef %0) #2 {
  %2 = alloca i64, align 8
  store i64 %0, ptr %2, align 8, !tbaa !6
  %3 = load i64, ptr %2, align 8, !tbaa !6
  %4 = inttoptr i64 %3 to ptr
  %5 = getelementptr inbounds nuw %struct.RString, ptr %4, i32 0, i32 1
  %6 = load i64, ptr %5, align 8, !tbaa !23
  ret i64 %6
}

; Function Attrs: inlinehint nounwind sspstrong willreturn memory(read) uwtable
define internal zeroext i1 @RB_FL_ANY_RAW(i64 noundef %0, i64 noundef %1) #2 {
  %3 = alloca i64, align 8
  %4 = alloca i64, align 8
  store i64 %0, ptr %3, align 8, !tbaa !6
  store i64 %1, ptr %4, align 8, !tbaa !6
  %5 = load i64, ptr %3, align 8, !tbaa !6
  %6 = load i64, ptr %4, align 8, !tbaa !6
  %7 = call i64 @RB_FL_TEST_RAW(i64 noundef %5, i64 noundef %6) #22
  %8 = icmp ne i64 %7, 0
  ret i1 %8
}

; Function Attrs: inlinehint nounwind sspstrong willreturn memory(read, argmem: readwrite) uwtable
define internal void @rbimpl_rstring_getmem(ptr dead_on_unwind noalias writable sret(%struct.RString) align 8 %0, i64 noundef %1) #8 {
  %3 = alloca i64, align 8
  store i64 %1, ptr %3, align 8, !tbaa !6
  %4 = load i64, ptr %3, align 8, !tbaa !6
  %5 = call zeroext i1 @RB_FL_ANY_RAW(i64 noundef %4, i64 noundef 8192) #22
  br i1 %5, label %6, label %9

6:                                                ; preds = %2
  %7 = load i64, ptr %3, align 8, !tbaa !6
  %8 = inttoptr i64 %7 to ptr
  call void @llvm.memcpy.p0.p0.i64(ptr align 8 %0, ptr align 8 %8, i64 40, i1 false), !tbaa.struct !37
  br label %20

9:                                                ; preds = %2
  %10 = load i64, ptr %3, align 8, !tbaa !6
  %11 = call i64 @RSTRING_LEN(i64 noundef %10) #22
  %12 = getelementptr inbounds nuw %struct.RString, ptr %0, i32 0, i32 1
  store i64 %11, ptr %12, align 8, !tbaa !23
  %13 = load i64, ptr %3, align 8, !tbaa !6
  %14 = inttoptr i64 %13 to ptr
  %15 = getelementptr inbounds nuw %struct.RString, ptr %14, i32 0, i32 2
  %16 = getelementptr inbounds nuw %struct.anon.1, ptr %15, i32 0, i32 0
  %17 = getelementptr inbounds [1 x i8], ptr %16, i64 0, i64 0
  %18 = getelementptr inbounds nuw %struct.RString, ptr %0, i32 0, i32 2
  %19 = getelementptr inbounds nuw %struct.anon, ptr %18, i32 0, i32 0
  store ptr %17, ptr %19, align 8, !tbaa !19
  br label %20

20:                                               ; preds = %9, %6
  ret void
}

; Function Attrs: inlinehint nounwind sspstrong uwtable
define internal ptr @RSTRING_PTR(i64 noundef %0) #3 {
  %2 = alloca i64, align 8
  %3 = alloca ptr, align 8
  %4 = alloca %struct.RString, align 8
  store i64 %0, ptr %2, align 8, !tbaa !6
  call void @llvm.lifetime.start.p0(i64 8, ptr %3) #21
  %5 = load i64, ptr %2, align 8, !tbaa !6
  call void @rbimpl_rstring_getmem(ptr dead_on_unwind writable sret(%struct.RString) align 8 %4, i64 noundef %5) #24
  %6 = getelementptr inbounds nuw %struct.RString, ptr %4, i32 0, i32 2
  %7 = getelementptr inbounds nuw %struct.anon, ptr %6, i32 0, i32 0
  %8 = load ptr, ptr %7, align 8, !tbaa !19
  store ptr %8, ptr %3, align 8, !tbaa !10
  %9 = load ptr, ptr %3, align 8, !tbaa !10
  call void @llvm.lifetime.end.p0(i64 8, ptr %3) #21
  ret ptr %9
}

; Function Attrs: inlinehint nounwind sspstrong willreturn memory(none) uwtable
define internal zeroext i1 @RB_NIL_P(i64 noundef %0) #4 {
  %2 = alloca i64, align 8
  store i64 %0, ptr %2, align 8, !tbaa !6
  %3 = load i64, ptr %2, align 8, !tbaa !6
  %4 = icmp eq i64 %3, 4
  ret i1 %4
}

; Function Attrs: inlinehint nounwind sspstrong willreturn memory(none) uwtable
define internal i64 @RB_INT2FIX(i64 noundef %0) #4 {
  %2 = alloca i64, align 8
  %3 = alloca i64, align 8
  %4 = alloca i64, align 8
  %5 = alloca i64, align 8
  %6 = alloca i64, align 8
  %7 = alloca i64, align 8
  store i64 %0, ptr %2, align 8, !tbaa !6
  call void @llvm.lifetime.start.p0(i64 8, ptr %3) #21
  %8 = load i64, ptr %2, align 8, !tbaa !6
  store i64 %8, ptr %3, align 8, !tbaa !6
  call void @llvm.lifetime.start.p0(i64 8, ptr %4) #21
  %9 = load i64, ptr %3, align 8, !tbaa !6
  %10 = shl i64 %9, 1
  %11 = add i64 %10, 1
  store i64 %11, ptr %4, align 8, !tbaa !6
  call void @llvm.lifetime.start.p0(i64 8, ptr %5) #21
  %12 = load i64, ptr %4, align 8, !tbaa !6
  store i64 %12, ptr %5, align 8, !tbaa !6
  call void @llvm.lifetime.start.p0(i64 8, ptr %6) #21
  %13 = load i64, ptr %5, align 8, !tbaa !6
  store i64 %13, ptr %6, align 8, !tbaa !6
  call void @llvm.lifetime.start.p0(i64 8, ptr %7) #21
  %14 = load i64, ptr %6, align 8, !tbaa !6
  store i64 %14, ptr %7, align 8, !tbaa !6
  %15 = load i64, ptr %7, align 8, !tbaa !6
  call void @llvm.lifetime.end.p0(i64 8, ptr %7) #21
  call void @llvm.lifetime.end.p0(i64 8, ptr %6) #21
  call void @llvm.lifetime.end.p0(i64 8, ptr %5) #21
  call void @llvm.lifetime.end.p0(i64 8, ptr %4) #21
  call void @llvm.lifetime.end.p0(i64 8, ptr %3) #21
  ret i64 %15
}

; Function Attrs: nounwind sspstrong uwtable
define internal i32 @mon_num(i64 noundef %0) #0 {
  %2 = alloca i64, align 8
  %3 = alloca i32, align 4
  store i64 %0, ptr %2, align 8, !tbaa !6
  call void @llvm.lifetime.start.p0(i64 4, ptr %3) #21
  store i32 0, ptr %3, align 4, !tbaa !13
  br label %4

4:                                                ; preds = %18, %1
  %5 = load i32, ptr %3, align 4, !tbaa !13
  %6 = icmp slt i32 %5, 12
  br i1 %6, label %7, label %21

7:                                                ; preds = %4
  %8 = load i32, ptr %3, align 4, !tbaa !13
  %9 = sext i32 %8 to i64
  %10 = getelementptr inbounds [12 x [4 x i8]], ptr @abbr_months, i64 0, i64 %9
  %11 = getelementptr inbounds [4 x i8], ptr %10, i64 0, i64 0
  %12 = load i64, ptr %2, align 8, !tbaa !6
  %13 = call ptr @RSTRING_PTR(i64 noundef %12)
  %14 = call i32 @rb_st_locale_insensitive_strncasecmp(ptr noundef %11, ptr noundef %13, i64 noundef 3) #22
  %15 = icmp eq i32 %14, 0
  br i1 %15, label %16, label %17

16:                                               ; preds = %7
  br label %21

17:                                               ; preds = %7
  br label %18

18:                                               ; preds = %17
  %19 = load i32, ptr %3, align 4, !tbaa !13
  %20 = add nsw i32 %19, 1
  store i32 %20, ptr %3, align 4, !tbaa !13
  br label %4, !llvm.loop !41

21:                                               ; preds = %16, %4
  %22 = load i32, ptr %3, align 4, !tbaa !13
  %23 = add nsw i32 %22, 1
  call void @llvm.lifetime.end.p0(i64 4, ptr %3) #21
  ret i32 %23
}

; Function Attrs: nounwind sspstrong uwtable
define internal i32 @parse_us_cb(i64 noundef %0, i64 noundef %1) #0 {
  %3 = alloca i64, align 8
  %4 = alloca i64, align 8
  %5 = alloca i64, align 8
  %6 = alloca i64, align 8
  %7 = alloca i64, align 8
  %8 = alloca i64, align 8
  store i64 %0, ptr %3, align 8, !tbaa !6
  store i64 %1, ptr %4, align 8, !tbaa !6
  call void @llvm.lifetime.start.p0(i64 8, ptr %5) #21
  call void @llvm.lifetime.start.p0(i64 8, ptr %6) #21
  call void @llvm.lifetime.start.p0(i64 8, ptr %7) #21
  call void @llvm.lifetime.start.p0(i64 8, ptr %8) #21
  %9 = load i64, ptr %3, align 8, !tbaa !6
  %10 = call i64 @rb_reg_nth_match(i32 noundef 1, i64 noundef %9)
  store i64 %10, ptr %6, align 8, !tbaa !6
  %11 = load i64, ptr %3, align 8, !tbaa !6
  %12 = call i64 @rb_reg_nth_match(i32 noundef 2, i64 noundef %11)
  store i64 %12, ptr %7, align 8, !tbaa !6
  %13 = load i64, ptr %3, align 8, !tbaa !6
  %14 = call i64 @rb_reg_nth_match(i32 noundef 3, i64 noundef %13)
  store i64 %14, ptr %8, align 8, !tbaa !6
  %15 = load i64, ptr %3, align 8, !tbaa !6
  %16 = call i64 @rb_reg_nth_match(i32 noundef 4, i64 noundef %15)
  store i64 %16, ptr %5, align 8, !tbaa !6
  %17 = load i64, ptr %6, align 8, !tbaa !6
  %18 = call i32 @mon_num(i64 noundef %17)
  %19 = sext i32 %18 to i64
  %20 = call i64 @RB_INT2FIX(i64 noundef %19) #23
  store i64 %20, ptr %6, align 8, !tbaa !6
  %21 = load i64, ptr %4, align 8, !tbaa !6
  %22 = load i64, ptr %5, align 8, !tbaa !6
  %23 = load i64, ptr %6, align 8, !tbaa !6
  %24 = load i64, ptr %7, align 8, !tbaa !6
  %25 = load i64, ptr %8, align 8, !tbaa !6
  %26 = call zeroext i1 @RB_NIL_P(i64 noundef %25) #23
  br i1 %26, label %41, label %27

27:                                               ; preds = %2
  %28 = load i64, ptr %8, align 8, !tbaa !6
  %29 = call ptr @RSTRING_PTR(i64 noundef %28)
  %30 = load i8, ptr %29, align 1, !tbaa !19
  %31 = sext i8 %30 to i32
  %32 = icmp eq i32 %31, 66
  br i1 %32, label %39, label %33

33:                                               ; preds = %27
  %34 = load i64, ptr %8, align 8, !tbaa !6
  %35 = call ptr @RSTRING_PTR(i64 noundef %34)
  %36 = load i8, ptr %35, align 1, !tbaa !19
  %37 = sext i8 %36 to i32
  %38 = icmp eq i32 %37, 98
  br label %39

39:                                               ; preds = %33, %27
  %40 = phi i1 [ true, %27 ], [ %38, %33 ]
  br label %41

41:                                               ; preds = %39, %2
  %42 = phi i1 [ false, %2 ], [ %40, %39 ]
  %43 = zext i1 %42 to i32
  call void @s3e(i64 noundef %21, i64 noundef %22, i64 noundef %23, i64 noundef %24, i32 noundef %43)
  call void @llvm.lifetime.end.p0(i64 8, ptr %8) #21
  call void @llvm.lifetime.end.p0(i64 8, ptr %7) #21
  call void @llvm.lifetime.end.p0(i64 8, ptr %6) #21
  call void @llvm.lifetime.end.p0(i64 8, ptr %5) #21
  ret i32 1
}